target datalayout = "e-m:e-p270:32:32-p271:32:32-p272:64:64-i64:64-i128:128-f80:128-n8:16:32:64-S128"
target triple = "x86_64-unknown-linux-gnu"

%"struct.ClipperLib::IntPoint" = type { i64, i64 }

; Function Attrs: mustprogress nounwind uwtable
define hidden noundef zeroext i1 @_ZN10ClipperLib14PointsAreCloseENS_8IntPointES0_d(i64 %pt1.coerce0, i64 %pt1.coerce1, i64 %pt2.coerce0, i64 %pt2.coerce1, double noundef %distSqrd) #1 {
entry:
  %pt1 = alloca %"struct.ClipperLib::IntPoint", align 8
  %pt2 = alloca %"struct.ClipperLib::IntPoint", align 8
  %distSqrd.addr = alloca double, align 8
  %Dx = alloca double, align 8
  %dy = alloca double, align 8
  %0 = getelementptr inbounds { i64, i64 }, ptr %pt1, i32 0, i32 0
  store i64 %pt1.coerce0, ptr %0, align 8
  %1 = getelementptr inbounds { i64, i64 }, ptr %pt1, i32 0, i32 1
  store i64 %pt1.coerce1, ptr %1, align 8
  %2 = getelementptr inbounds { i64, i64 }, ptr %pt2, i32 0, i32 0
  store i64 %pt2.coerce0, ptr %2, align 8
  %3 = getelementptr inbounds { i64, i64 }, ptr %pt2, i32 0, i32 1
  store i64 %pt2.coerce1, ptr %3, align 8
  store double %distSqrd, ptr %distSqrd.addr, align 8
  %X = getelementptr inbounds %"struct.ClipperLib::IntPoint", ptr %pt1, i32 0, i32 0
  %4 = load i64, ptr %X, align 8
  %conv = sitofp i64 %4 to double
  %X1 = getelementptr inbounds %"struct.ClipperLib::IntPoint", ptr %pt2, i32 0, i32 0
  %5 = load i64, ptr %X1, align 8
  %conv2 = sitofp i64 %5 to double
  %sub = fsub double %conv, %conv2
  store double %sub, ptr %Dx, align 8
  %Y = getelementptr inbounds %"struct.ClipperLib::IntPoint", ptr %pt1, i32 0, i32 1
  %6 = load i64, ptr %Y, align 8
  %conv3 = sitofp i64 %6 to double
  %Y4 = getelementptr inbounds %"struct.ClipperLib::IntPoint", ptr %pt2, i32 0, i32 1
  %7 = load i64, ptr %Y4, align 8
  %conv5 = sitofp i64 %7 to double
  %sub6 = fsub double %conv3, %conv5
  store double %sub6, ptr %dy, align 8
  %8 = load double, ptr %Dx, align 8
  %9 = load double, ptr %Dx, align 8
  %10 = load double, ptr %dy, align 8
  %11 = load double, ptr %dy, align 8
  %mul7 = fmul double %10, %11
  %12 = call double @llvm.fmuladd.f64(double %8, double %9, double %mul7)
  %13 = load double, ptr %distSqrd.addr, align 8
  %cmp = fcmp ole double %12, %13
  ret i1 %cmp
}