; Function Attrs: mustprogress nofree norecurse nosync nounwind willreturn memory(none) uwtable
define hidden noundef zeroext i1 @_ZN10ClipperLib14PointsAreCloseENS_8IntPointES0_d(i64 %pt1.coerce0, i64 %pt1.coerce1, i64 %pt2.coerce0, i64 %pt2.coerce1, double noundef %distSqrd) local_unnamed_addr #6 {
entry:
  %conv = sitofp i64 %pt1.coerce0 to double
  %conv2 = sitofp i64 %pt2.coerce0 to double
  %sub = fsub double %conv, %conv2
  %conv3 = sitofp i64 %pt1.coerce1 to double
  %conv5 = sitofp i64 %pt2.coerce1 to double
  %sub6 = fsub double %conv3, %conv5
  %mul7 = fmul double %sub6, %sub6
  %0 = tail call double @llvm.fmuladd.f64(double %sub, double %sub, double %mul7)
  %cmp = fcmp ole double %0, %distSqrd
  ret i1 %cmp
}